target datalayout = "e-m:e-p270:32:32-p271:32:32-p272:64:64-i64:64-i128:128-f80:128-n8:16:32:64-S128"
target triple = "x86_64-pc-linux-gnu"

%struct.HWDevice = type { ptr, i32, ptr }

@nb_hw_devices = internal global i32 0, align 4
@hw_devices = internal global ptr null, align 8
@.str.10 = private unnamed_addr constant [29 x i8] c"Device creation failed: %d.\0A\00", align 1

; Function Attrs: nounwind uwtable
define internal ptr @hw_device_add() #0 {
  %1 = alloca ptr, align 8
  %2 = alloca i32, align 4
  %3 = alloca i32, align 4
  call void @llvm.lifetime.start.p0(i64 4, ptr %2) #5
  %4 = load i32, ptr @nb_hw_devices, align 4, !tbaa !4
  %5 = add nsw i32 %4, 1
  %6 = sext i32 %5 to i64
  %7 = call i32 @av_reallocp_array(ptr noundef @hw_devices, i64 noundef %6, i64 noundef 8)
  store i32 %7, ptr %2, align 4, !tbaa !4
  %8 = load i32, ptr %2, align 4, !tbaa !4
  %9 = icmp ne i32 %8, 0
  br i1 %9, label %10, label %11

10:                                               ; preds = %0
  store i32 0, ptr @nb_hw_devices, align 4, !tbaa !4
  store ptr null, ptr %1, align 8
  store i32 1, ptr %3, align 4
  br label %31

11:                                               ; preds = %0
  %12 = call noalias ptr @av_mallocz(i64 noundef 24)
  %13 = load ptr, ptr @hw_devices, align 8, !tbaa !11
  %14 = load i32, ptr @nb_hw_devices, align 4, !tbaa !4
  %15 = sext i32 %14 to i64
  %16 = getelementptr inbounds ptr, ptr %13, i64 %15
  store ptr %12, ptr %16, align 8, !tbaa !8
  %17 = load ptr, ptr @hw_devices, align 8, !tbaa !11
  %18 = load i32, ptr @nb_hw_devices, align 4, !tbaa !4
  %19 = sext i32 %18 to i64
  %20 = getelementptr inbounds ptr, ptr %17, i64 %19
  %21 = load ptr, ptr %20, align 8, !tbaa !8
  %22 = icmp ne ptr %21, null
  br i1 %22, label %24, label %23

23:                                               ; preds = %11
  store ptr null, ptr %1, align 8
  store i32 1, ptr %3, align 4
  br label %31

24:                                               ; preds = %11
  %25 = load ptr, ptr @hw_devices, align 8, !tbaa !11
  %26 = load i32, ptr @nb_hw_devices, align 4, !tbaa !4
  %27 = add nsw i32 %26, 1
  store i32 %27, ptr @nb_hw_devices, align 4, !tbaa !4
  %28 = sext i32 %26 to i64
  %29 = getelementptr inbounds ptr, ptr %25, i64 %28
  %30 = load ptr, ptr %29, align 8, !tbaa !8
  store ptr %30, ptr %1, align 8
  store i32 1, ptr %3, align 4
  br label %31

31:                                               ; preds = %24, %23, %10
  call void @llvm.lifetime.end.p0(i64 4, ptr %2) #5
  %32 = load ptr, ptr %1, align 8
  ret ptr %32
}

; Function Attrs: nounwind uwtable
define i32 @hw_device_init_from_type(i32 noundef %0, ptr noundef %1, ptr noundef %2) #0 {
  %4 = alloca i32, align 4
  %5 = alloca i32, align 4
  %6 = alloca ptr, align 8
  %7 = alloca ptr, align 8
  %8 = alloca ptr, align 8
  %9 = alloca ptr, align 8
  %10 = alloca ptr, align 8
  %11 = alloca i32, align 4
  %12 = alloca i32, align 4
  store i32 %0, ptr %5, align 4, !tbaa !4
  store ptr %1, ptr %6, align 8, !tbaa !20
  store ptr %2, ptr %7, align 8, !tbaa !11
  call void @llvm.lifetime.start.p0(i64 8, ptr %8) #5
  store ptr null, ptr %8, align 8, !tbaa !25
  call void @llvm.lifetime.start.p0(i64 8, ptr %9) #5
  call void @llvm.lifetime.start.p0(i64 8, ptr %10) #5
  call void @llvm.lifetime.start.p0(i64 4, ptr %11) #5
  %13 = load i32, ptr %5, align 4, !tbaa !4
  %14 = call ptr @hw_device_default_name(i32 noundef %13)
  store ptr %14, ptr %10, align 8, !tbaa !20
  %15 = load ptr, ptr %10, align 8, !tbaa !20
  %16 = icmp ne ptr %15, null
  br i1 %16, label %18, label %17

17:                                               ; preds = %3
  store i32 -12, ptr %11, align 4, !tbaa !4
  br label %47

18:                                               ; preds = %3
  %19 = load i32, ptr %5, align 4, !tbaa !4
  %20 = load ptr, ptr %6, align 8, !tbaa !20
  %21 = call i32 @av_hwdevice_ctx_create(ptr noundef %8, i32 noundef %19, ptr noundef %20, ptr noundef null, i32 noundef 0)
  store i32 %21, ptr %11, align 4, !tbaa !4
  %22 = load i32, ptr %11, align 4, !tbaa !4
  %23 = icmp slt i32 %22, 0
  br i1 %23, label %24, label %26

24:                                               ; preds = %18
  %25 = load i32, ptr %11, align 4, !tbaa !4
  call void (ptr, i32, ptr, ...) @av_log(ptr noundef null, i32 noundef 16, ptr noundef @.str.10, i32 noundef %25)
  br label %47

26:                                               ; preds = %18
  %27 = call ptr @hw_device_add()
  store ptr %27, ptr %9, align 8, !tbaa !8
  %28 = load ptr, ptr %9, align 8, !tbaa !8
  %29 = icmp ne ptr %28, null
  br i1 %29, label %31, label %30

30:                                               ; preds = %26
  store i32 -12, ptr %11, align 4, !tbaa !4
  br label %47

31:                                               ; preds = %26
  %32 = load ptr, ptr %10, align 8, !tbaa !20
  %33 = load ptr, ptr %9, align 8, !tbaa !8
  %34 = getelementptr inbounds nuw %struct.HWDevice, ptr %33, i32 0, i32 0
  store ptr %32, ptr %34, align 8, !tbaa !21
  %35 = load i32, ptr %5, align 4, !tbaa !4
  %36 = load ptr, ptr %9, align 8, !tbaa !8
  %37 = getelementptr inbounds nuw %struct.HWDevice, ptr %36, i32 0, i32 1
  store i32 %35, ptr %37, align 8, !tbaa !14
  %38 = load ptr, ptr %8, align 8, !tbaa !25
  %39 = load ptr, ptr %9, align 8, !tbaa !8
  %40 = getelementptr inbounds nuw %struct.HWDevice, ptr %39, i32 0, i32 2
  store ptr %38, ptr %40, align 8, !tbaa !29
  %41 = load ptr, ptr %7, align 8, !tbaa !11
  %42 = icmp ne ptr %41, null
  br i1 %42, label %43, label %46

43:                                               ; preds = %31
  %44 = load ptr, ptr %9, align 8, !tbaa !8
  %45 = load ptr, ptr %7, align 8, !tbaa !11
  store ptr %44, ptr %45, align 8, !tbaa !8
  br label %46

46:                                               ; preds = %43, %31
  store i32 0, ptr %4, align 4
  store i32 1, ptr %12, align 4
  br label %49

47:                                               ; preds = %30, %24, %17
  call void @av_freep(ptr noundef %10)
  call void @av_buffer_unref(ptr noundef %8)
  %48 = load i32, ptr %11, align 4, !tbaa !4
  store i32 %48, ptr %4, align 4
  store i32 1, ptr %12, align 4
  br label %49

49:                                               ; preds = %47, %46
  call void @llvm.lifetime.end.p0(i64 4, ptr %11) #5
  call void @llvm.lifetime.end.p0(i64 8, ptr %10) #5
  call void @llvm.lifetime.end.p0(i64 8, ptr %9) #5
  call void @llvm.lifetime.end.p0(i64 8, ptr %8) #5
  %50 = load i32, ptr %4, align 4
  ret i32 %50
}