; Function Attrs: nounwind uwtable
define range(i32 -2147483648, 1) i32 @hw_device_init_from_type(i32 noundef %0, ptr noundef %1, ptr noundef writeonly captures(address_is_null) %2) local_unnamed_addr #4 {
  %4 = alloca ptr, align 8
  %5 = alloca ptr, align 8
  call void @llvm.lifetime.start.p0(i64 8, ptr nonnull %4) #8
  store ptr null, ptr %4, align 8, !tbaa !25
  call void @llvm.lifetime.start.p0(i64 8, ptr nonnull %5) #8
  %6 = tail call fastcc ptr @hw_device_default_name(i32 noundef %0)
  store ptr %6, ptr %5, align 8, !tbaa !24
  %.not = icmp eq ptr %6, null
  br i1 %.not, label %hw_device_add.exit.thread, label %7

7:                                                ; preds = %3
  %8 = call i32 @av_hwdevice_ctx_create(ptr noundef nonnull %4, i32 noundef %0, ptr noundef %1, ptr noundef null, i32 noundef 0) #8
  %9 = icmp slt i32 %8, 0
  br i1 %9, label %10, label %11

10:                                               ; preds = %7
  call void (ptr, i32, ptr, ...) @av_log(ptr noundef null, i32 noundef 16, ptr noundef nonnull @.str.10, i32 noundef %8) #8
  br label %hw_device_add.exit.thread

11:                                               ; preds = %7
  %12 = load i32, ptr @nb_hw_devices, align 4, !tbaa !4
  %13 = add nsw i32 %12, 1
  %14 = sext i32 %13 to i64
  %15 = call i32 @av_reallocp_array(ptr noundef nonnull @hw_devices, i64 noundef %14, i64 noundef 8) #8
  %.not.i = icmp eq i32 %15, 0
  br i1 %.not.i, label %16, label %hw_device_add.exit.thread22

hw_device_add.exit.thread22:                      ; preds = %11
  store i32 0, ptr @nb_hw_devices, align 4, !tbaa !4
  br label %hw_device_add.exit.thread

16:                                               ; preds = %11
  %17 = call noalias ptr @av_mallocz(i64 noundef 24) #8
  %18 = load ptr, ptr @hw_devices, align 8, !tbaa !8
  %19 = load i32, ptr @nb_hw_devices, align 4, !tbaa !4
  %20 = sext i32 %19 to i64
  %21 = getelementptr inbounds ptr, ptr %18, i64 %20
  store ptr %17, ptr %21, align 8, !tbaa !12
  %.not1.i = icmp eq ptr %17, null
  br i1 %.not1.i, label %hw_device_add.exit.thread, label %22

22:                                               ; preds = %16
  %23 = add nsw i32 %19, 1
  store i32 %23, ptr @nb_hw_devices, align 4, !tbaa !4
  store ptr %6, ptr %17, align 8, !tbaa !21
  %24 = getelementptr inbounds nuw i8, ptr %17, i64 8
  store i32 %0, ptr %24, align 8, !tbaa !14
  %25 = load ptr, ptr %4, align 8, !tbaa !25
  %26 = getelementptr inbounds nuw i8, ptr %17, i64 16
  store ptr %25, ptr %26, align 8, !tbaa !27
  %.not19 = icmp eq ptr %2, null
  br i1 %.not19, label %28, label %27

27:                                               ; preds = %22
  store ptr %17, ptr %2, align 8, !tbaa !12
  br label %28

hw_device_add.exit.thread:                        ; preds = %16, %hw_device_add.exit.thread22, %3, %10
  %.0 = phi i32 [ %8, %10 ], [ -12, %3 ], [ -12, %hw_device_add.exit.thread22 ], [ -12, %16 ]
  call void @av_freep(ptr noundef nonnull %5) #8
  call void @av_buffer_unref(ptr noundef nonnull %4) #8
  br label %28

28:                                               ; preds = %22, %27, %hw_device_add.exit.thread
  %.014 = phi i32 [ %.0, %hw_device_add.exit.thread ], [ 0, %27 ], [ 0, %22 ]
  call void @llvm.lifetime.end.p0(i64 8, ptr nonnull %5) #8
  call void @llvm.lifetime.end.p0(i64 8, ptr nonnull %4) #8
  ret i32 %.014
}